; Function Attrs: mustprogress nounwind uwtable
define internal void @_ZN12_GLOBAL__N_133PlaceBackedgeSafepointsLegacyPassD2Ev(ptr noundef nonnull align 8 dereferenceable(96) %0) unnamed_addr #0 align 2 {
  store ptr getelementptr inbounds inrange(-16, 144) (i8, ptr @_ZTVN12_GLOBAL__N_133PlaceBackedgeSafepointsLegacyPassE, i64 16), ptr %0, align 8
  %2 = getelementptr inbounds nuw i8, ptr %0, i64 32
  %3 = load ptr, ptr %2, align 8
  %.not.i.i.i = icmp eq ptr %3, null
  br i1 %.not.i.i.i, label %_ZNSt6vectorIPN4llvm11InstructionESaIS2_EED2Ev.exit, label %4

4:                                                ; preds = %1
  %5 = getelementptr inbounds i8, ptr %0, i64 48
  %6 = load ptr, ptr %5, align 8
  %7 = ptrtoint ptr %6 to i64
  %8 = ptrtoint ptr %3 to i64
  %9 = sub i64 %7, %8
  tail call void @_ZdlPvm(ptr noundef nonnull %3, i64 noundef %9) #23
  br label %_ZNSt6vectorIPN4llvm11InstructionESaIS2_EED2Ev.exit

_ZNSt6vectorIPN4llvm11InstructionESaIS2_EED2Ev.exit: ; preds = %1, %4
  tail call void @_ZN4llvm4PassD2Ev(ptr noundef nonnull align 8 dereferenceable(28) %0) #19
  ret void
}